; Function Attrs: mustprogress nounwind uwtable
define hidden void @_ZN19OpenColorIO_v2_5dev17CTFReaderLut3DEltD2Ev(ptr noundef nonnull align 8 dereferenceable(240) initializes((0, 8), (104, 112), (120, 128)) %0) unnamed_addr #3 align 2 personality ptr @__gxx_personality_v0 {
  store ptr getelementptr inbounds nuw inrange(-16, 120) (i8, ptr @_ZTVN19OpenColorIO_v2_5dev17CTFReaderLut3DEltE, i64 16), ptr %0, align 8, !tbaa !9
  %2 = getelementptr inbounds nuw i8, ptr %0, i64 104
  store ptr getelementptr inbounds nuw inrange(-16, 40) (i8, ptr @_ZTVN19OpenColorIO_v2_5dev17CTFReaderLut3DEltE, i64 152), ptr %2, align 8, !tbaa !9
  %3 = getelementptr inbounds nuw i8, ptr %0, i64 120
  store ptr getelementptr inbounds nuw inrange(-16, 32) (i8, ptr @_ZTVN19OpenColorIO_v2_5dev17CTFReaderLut3DEltE, i64 208), ptr %3, align 8, !tbaa !9
  %4 = getelementptr inbounds nuw i8, ptr %0, i64 152
  tail call void @_ZN19OpenColorIO_v2_5dev12IndexMappingD1Ev(ptr noundef nonnull align 8 dereferenceable(88) %4) #33
  %5 = getelementptr inbounds nuw i8, ptr %0, i64 144
  %6 = load ptr, ptr %5, align 8, !tbaa !33
  %.not.i.i = icmp eq ptr %6, null
  br i1 %.not.i.i, label %_ZNSt12__shared_ptrIN19OpenColorIO_v2_5dev11Lut3DOpDataELN9__gnu_cxx12_Lock_policyE2EED2Ev.exit, label %7

7:                                                ; preds = %1
  %8 = getelementptr inbounds nuw i8, ptr %6, i64 8
  %9 = load atomic i64, ptr %8 acquire, align 8
  %10 = icmp eq i64 %9, 4294967297
  %11 = trunc i64 %9 to i32
  br i1 %10, label %12, label %20

12:                                               ; preds = %7
  store i32 0, ptr %8, align 8, !tbaa !26
  %13 = getelementptr inbounds nuw i8, ptr %6, i64 12
  store i32 0, ptr %13, align 4, !tbaa !31
  %14 = load ptr, ptr %6, align 8, !tbaa !9
  %15 = getelementptr inbounds nuw i8, ptr %14, i64 16
  %16 = load ptr, ptr %15, align 8
  tail call void %16(ptr noundef nonnull align 8 dereferenceable(16) %6) #33
  %17 = load ptr, ptr %6, align 8, !tbaa !9
  %18 = getelementptr inbounds nuw i8, ptr %17, i64 24
  %19 = load ptr, ptr %18, align 8
  tail call void %19(ptr noundef nonnull align 8 dereferenceable(16) %6) #33
  br label %_ZNSt12__shared_ptrIN19OpenColorIO_v2_5dev11Lut3DOpDataELN9__gnu_cxx12_Lock_policyE2EED2Ev.exit

20:                                               ; preds = %7
  %21 = load i8, ptr @__libc_single_threaded, align 1, !tbaa !34
  %.not.i.i.i = icmp eq i8 %21, 0
  br i1 %.not.i.i.i, label %24, label %22

22:                                               ; preds = %20
  %23 = add nsw i32 %11, -1
  store i32 %23, ptr %8, align 4, !tbaa !35
  br label %_ZN9__gnu_cxx27__exchange_and_add_dispatchEPii.exit.i.i.i

24:                                               ; preds = %20
  %25 = atomicrmw volatile add ptr %8, i32 -1 acq_rel, align 4
  br label %_ZN9__gnu_cxx27__exchange_and_add_dispatchEPii.exit.i.i.i

_ZN9__gnu_cxx27__exchange_and_add_dispatchEPii.exit.i.i.i: ; preds = %24, %22
  %.0.i.i.i.i = phi i32 [ %11, %22 ], [ %25, %24 ]
  %26 = icmp eq i32 %.0.i.i.i.i, 1
  br i1 %26, label %27, label %_ZNSt12__shared_ptrIN19OpenColorIO_v2_5dev11Lut3DOpDataELN9__gnu_cxx12_Lock_policyE2EED2Ev.exit, !prof !36

27:                                               ; preds = %_ZN9__gnu_cxx27__exchange_and_add_dispatchEPii.exit.i.i.i
  tail call void @_ZNSt16_Sp_counted_baseILN9__gnu_cxx12_Lock_policyE2EE24_M_release_last_use_coldEv(ptr noundef nonnull align 8 dereferenceable(16) %6) #33
  br label %_ZNSt12__shared_ptrIN19OpenColorIO_v2_5dev11Lut3DOpDataELN9__gnu_cxx12_Lock_policyE2EED2Ev.exit

_ZNSt12__shared_ptrIN19OpenColorIO_v2_5dev11Lut3DOpDataELN9__gnu_cxx12_Lock_policyE2EED2Ev.exit: ; preds = %1, %12, %_ZN9__gnu_cxx27__exchange_and_add_dispatchEPii.exit.i.i.i, %27
  store ptr getelementptr inbounds nuw inrange(-16, 88) (i8, ptr @_ZTVN19OpenColorIO_v2_5dev14CTFReaderOpEltE, i64 16), ptr %0, align 8, !tbaa !9
  %28 = getelementptr inbounds nuw i8, ptr %0, i64 88
  %29 = load ptr, ptr %28, align 8, !tbaa !33
  %.not.i.i.i1 = icmp eq ptr %29, null
  br i1 %.not.i.i.i1, label %_ZN19OpenColorIO_v2_5dev14CTFReaderOpEltD2Ev.exit, label %30

30:                                               ; preds = %_ZNSt12__shared_ptrIN19OpenColorIO_v2_5dev11Lut3DOpDataELN9__gnu_cxx12_Lock_policyE2EED2Ev.exit
  %31 = getelementptr inbounds nuw i8, ptr %29, i64 8
  %32 = load atomic i64, ptr %31 acquire, align 8
  %33 = icmp eq i64 %32, 4294967297
  %34 = trunc i64 %32 to i32
  br i1 %33, label %35, label %43

35:                                               ; preds = %30
  store i32 0, ptr %31, align 8, !tbaa !26
  %36 = getelementptr inbounds nuw i8, ptr %29, i64 12
  store i32 0, ptr %36, align 4, !tbaa !31
  %37 = load ptr, ptr %29, align 8, !tbaa !9
  %38 = getelementptr inbounds nuw i8, ptr %37, i64 16
  %39 = load ptr, ptr %38, align 8
  tail call void %39(ptr noundef nonnull align 8 dereferenceable(16) %29) #33
  %40 = load ptr, ptr %29, align 8, !tbaa !9
  %41 = getelementptr inbounds nuw i8, ptr %40, i64 24
  %42 = load ptr, ptr %41, align 8
  tail call void %42(ptr noundef nonnull align 8 dereferenceable(16) %29) #33
  br label %_ZN19OpenColorIO_v2_5dev14CTFReaderOpEltD2Ev.exit

43:                                               ; preds = %30
  %44 = load i8, ptr @__libc_single_threaded, align 1, !tbaa !34
  %.not.i.i.i.i = icmp eq i8 %44, 0
  br i1 %.not.i.i.i.i, label %47, label %45

45:                                               ; preds = %43
  %46 = add nsw i32 %34, -1
  store i32 %46, ptr %31, align 4, !tbaa !35
  br label %_ZN9__gnu_cxx27__exchange_and_add_dispatchEPii.exit.i.i.i.i

47:                                               ; preds = %43
  %48 = atomicrmw volatile add ptr %31, i32 -1 acq_rel, align 4
  br label %_ZN9__gnu_cxx27__exchange_and_add_dispatchEPii.exit.i.i.i.i

_ZN9__gnu_cxx27__exchange_and_add_dispatchEPii.exit.i.i.i.i: ; preds = %47, %45
  %.0.i.i.i.i.i = phi i32 [ %34, %45 ], [ %48, %47 ]
  %49 = icmp eq i32 %.0.i.i.i.i.i, 1
  br i1 %49, label %50, label %_ZN19OpenColorIO_v2_5dev14CTFReaderOpEltD2Ev.exit, !prof !36

50:                                               ; preds = %_ZN9__gnu_cxx27__exchange_and_add_dispatchEPii.exit.i.i.i.i
  tail call void @_ZNSt16_Sp_counted_baseILN9__gnu_cxx12_Lock_policyE2EE24_M_release_last_use_coldEv(ptr noundef nonnull align 8 dereferenceable(16) %29) #33
  br label %_ZN19OpenColorIO_v2_5dev14CTFReaderOpEltD2Ev.exit

_ZN19OpenColorIO_v2_5dev14CTFReaderOpEltD2Ev.exit: ; preds = %_ZNSt12__shared_ptrIN19OpenColorIO_v2_5dev11Lut3DOpDataELN9__gnu_cxx12_Lock_policyE2EED2Ev.exit, %35, %_ZN9__gnu_cxx27__exchange_and_add_dispatchEPii.exit.i.i.i.i, %50
  tail call void @_ZN19OpenColorIO_v2_5dev16XmlReaderElementD2Ev(ptr noundef nonnull align 8 dereferenceable(104) %0) #33
  ret void
}